target datalayout = "e-m:e-p270:32:32-p271:32:32-p272:64:64-i64:64-i128:128-f80:128-n8:16:32:64-S128"
target triple = "x86_64-pc-linux-gnu"

%struct.SDL_DisplayMode = type { i32, i32, i32, i32, float, float, i32, i32, ptr }
%struct.SDL_HDROutputProperties = type { float, float }
%struct.SDL_VideoDisplay = type { i32, ptr, i32, i32, ptr, %struct.SDL_DisplayMode, ptr, i32, i32, float, %struct.SDL_HDROutputProperties, i8, ptr, ptr, i32, ptr }

; Function Attrs: nounwind uwtable
define internal zeroext i1 @DisplayModeChanged(ptr noundef %0, ptr noundef %1) #0 {
  %3 = alloca ptr, align 8
  %4 = alloca ptr, align 8
  store ptr %0, ptr %3, align 8
  store ptr %1, ptr %4, align 8
  %5 = load ptr, ptr %3, align 8
  %6 = getelementptr inbounds nuw %struct.SDL_DisplayMode, ptr %5, i32 0, i32 0
  %7 = load i32, ptr %6, align 8
  %8 = icmp ne i32 %7, 0
  br i1 %8, label %9, label %17

9:                                                ; preds = %2
  %10 = load ptr, ptr %3, align 8
  %11 = getelementptr inbounds nuw %struct.SDL_DisplayMode, ptr %10, i32 0, i32 0
  %12 = load i32, ptr %11, align 8
  %13 = load ptr, ptr %4, align 8
  %14 = getelementptr inbounds nuw %struct.SDL_DisplayMode, ptr %13, i32 0, i32 0
  %15 = load i32, ptr %14, align 8
  %16 = icmp ne i32 %12, %15
  br i1 %16, label %84, label %17

17:                                               ; preds = %9, %2
  %18 = load ptr, ptr %3, align 8
  %19 = getelementptr inbounds nuw %struct.SDL_DisplayMode, ptr %18, i32 0, i32 1
  %20 = load i32, ptr %19, align 4
  %21 = icmp ne i32 %20, 0
  br i1 %21, label %22, label %30

22:                                               ; preds = %17
  %23 = load ptr, ptr %3, align 8
  %24 = getelementptr inbounds nuw %struct.SDL_DisplayMode, ptr %23, i32 0, i32 1
  %25 = load i32, ptr %24, align 4
  %26 = load ptr, ptr %4, align 8
  %27 = getelementptr inbounds nuw %struct.SDL_DisplayMode, ptr %26, i32 0, i32 1
  %28 = load i32, ptr %27, align 4
  %29 = icmp ne i32 %25, %28
  br i1 %29, label %84, label %30

30:                                               ; preds = %22, %17
  %31 = load ptr, ptr %3, align 8
  %32 = getelementptr inbounds nuw %struct.SDL_DisplayMode, ptr %31, i32 0, i32 2
  %33 = load i32, ptr %32, align 8
  %34 = icmp ne i32 %33, 0
  br i1 %34, label %35, label %56

35:                                               ; preds = %30
  %36 = load ptr, ptr %3, align 8
  %37 = getelementptr inbounds nuw %struct.SDL_DisplayMode, ptr %36, i32 0, i32 3
  %38 = load i32, ptr %37, align 4
  %39 = icmp ne i32 %38, 0
  br i1 %39, label %40, label %56

40:                                               ; preds = %35
  %41 = load ptr, ptr %3, align 8
  %42 = getelementptr inbounds nuw %struct.SDL_DisplayMode, ptr %41, i32 0, i32 2
  %43 = load i32, ptr %42, align 8
  %44 = load ptr, ptr %4, align 8
  %45 = getelementptr inbounds nuw %struct.SDL_DisplayMode, ptr %44, i32 0, i32 2
  %46 = load i32, ptr %45, align 8
  %47 = icmp ne i32 %43, %46
  br i1 %47, label %84, label %48

48:                                               ; preds = %40
  %49 = load ptr, ptr %3, align 8
  %50 = getelementptr inbounds nuw %struct.SDL_DisplayMode, ptr %49, i32 0, i32 3
  %51 = load i32, ptr %50, align 4
  %52 = load ptr, ptr %4, align 8
  %53 = getelementptr inbounds nuw %struct.SDL_DisplayMode, ptr %52, i32 0, i32 3
  %54 = load i32, ptr %53, align 4
  %55 = icmp ne i32 %51, %54
  br i1 %55, label %84, label %56

56:                                               ; preds = %48, %35, %30
  %57 = load ptr, ptr %3, align 8
  %58 = getelementptr inbounds nuw %struct.SDL_DisplayMode, ptr %57, i32 0, i32 4
  %59 = load float, ptr %58, align 8
  %60 = fcmp une float %59, 0.000000e+00
  br i1 %60, label %61, label %69

61:                                               ; preds = %56
  %62 = load ptr, ptr %3, align 8
  %63 = getelementptr inbounds nuw %struct.SDL_DisplayMode, ptr %62, i32 0, i32 4
  %64 = load float, ptr %63, align 8
  %65 = load ptr, ptr %4, align 8
  %66 = getelementptr inbounds nuw %struct.SDL_DisplayMode, ptr %65, i32 0, i32 4
  %67 = load float, ptr %66, align 8
  %68 = fcmp une float %64, %67
  br i1 %68, label %84, label %69

69:                                               ; preds = %61, %56
  %70 = load ptr, ptr %3, align 8
  %71 = getelementptr inbounds nuw %struct.SDL_DisplayMode, ptr %70, i32 0, i32 5
  %72 = load float, ptr %71, align 4
  %73 = fcmp une float %72, 0.000000e+00
  br i1 %73, label %74, label %82

74:                                               ; preds = %69
  %75 = load ptr, ptr %3, align 8
  %76 = getelementptr inbounds nuw %struct.SDL_DisplayMode, ptr %75, i32 0, i32 5
  %77 = load float, ptr %76, align 4
  %78 = load ptr, ptr %4, align 8
  %79 = getelementptr inbounds nuw %struct.SDL_DisplayMode, ptr %78, i32 0, i32 5
  %80 = load float, ptr %79, align 4
  %81 = fcmp une float %77, %80
  br label %82

82:                                               ; preds = %74, %69
  %83 = phi i1 [ false, %69 ], [ %81, %74 ]
  br label %84

84:                                               ; preds = %82, %61, %48, %40, %22, %9
  %85 = phi i1 [ true, %61 ], [ true, %48 ], [ true, %40 ], [ true, %22 ], [ true, %9 ], [ %83, %82 ]
  ret i1 %85
}

; Function Attrs: nounwind uwtable
define internal void @SDL_FinalizeDisplayMode(ptr noundef %0) #0 {
  %2 = alloca ptr, align 8
  store ptr %0, ptr %2, align 8
  %3 = load ptr, ptr %2, align 8
  %4 = getelementptr inbounds nuw %struct.SDL_DisplayMode, ptr %3, i32 0, i32 4
  %5 = load float, ptr %4, align 8
  %6 = fcmp ole float %5, 0.000000e+00
  br i1 %6, label %7, label %10

7:                                                ; preds = %1
  %8 = load ptr, ptr %2, align 8
  %9 = getelementptr inbounds nuw %struct.SDL_DisplayMode, ptr %8, i32 0, i32 4
  store float 1.000000e+00, ptr %9, align 8
  br label %10

10:                                               ; preds = %7, %1
  %11 = load ptr, ptr %2, align 8
  %12 = getelementptr inbounds nuw %struct.SDL_DisplayMode, ptr %11, i32 0, i32 6
  %13 = load i32, ptr %12, align 8
  %14 = icmp sgt i32 %13, 0
  br i1 %14, label %15, label %38

15:                                               ; preds = %10
  %16 = load ptr, ptr %2, align 8
  %17 = getelementptr inbounds nuw %struct.SDL_DisplayMode, ptr %16, i32 0, i32 7
  %18 = load i32, ptr %17, align 4
  %19 = icmp sle i32 %18, 0
  br i1 %19, label %20, label %23

20:                                               ; preds = %15
  %21 = load ptr, ptr %2, align 8
  %22 = getelementptr inbounds nuw %struct.SDL_DisplayMode, ptr %21, i32 0, i32 7
  store i32 1, ptr %22, align 4
  br label %23

23:                                               ; preds = %20, %15
  %24 = load ptr, ptr %2, align 8
  %25 = getelementptr inbounds nuw %struct.SDL_DisplayMode, ptr %24, i32 0, i32 6
  %26 = load i32, ptr %25, align 8
  %27 = sext i32 %26 to i64
  %28 = mul nsw i64 100, %27
  %29 = load ptr, ptr %2, align 8
  %30 = getelementptr inbounds nuw %struct.SDL_DisplayMode, ptr %29, i32 0, i32 7
  %31 = load i32, ptr %30, align 4
  %32 = sext i32 %31 to i64
  %33 = sdiv i64 %28, %32
  %34 = sitofp i64 %33 to float
  %35 = fdiv float %34, 1.000000e+02
  %36 = load ptr, ptr %2, align 8
  %37 = getelementptr inbounds nuw %struct.SDL_DisplayMode, ptr %36, i32 0, i32 5
  store float %35, ptr %37, align 4
  br label %55

38:                                               ; preds = %10
  %39 = load ptr, ptr %2, align 8
  %40 = getelementptr inbounds nuw %struct.SDL_DisplayMode, ptr %39, i32 0, i32 5
  %41 = load float, ptr %40, align 4
  %42 = load ptr, ptr %2, align 8
  %43 = getelementptr inbounds nuw %struct.SDL_DisplayMode, ptr %42, i32 0, i32 6
  %44 = load ptr, ptr %2, align 8
  %45 = getelementptr inbounds nuw %struct.SDL_DisplayMode, ptr %44, i32 0, i32 7
  call void @SDL_CalculateFraction(float noundef %41, ptr noundef %43, ptr noundef %45)
  %46 = load ptr, ptr %2, align 8
  %47 = getelementptr inbounds nuw %struct.SDL_DisplayMode, ptr %46, i32 0, i32 5
  %48 = load float, ptr %47, align 4
  %49 = fmul float %48, 1.000000e+02
  %50 = fptosi float %49 to i32
  %51 = sitofp i32 %50 to float
  %52 = fdiv float %51, 1.000000e+02
  %53 = load ptr, ptr %2, align 8
  %54 = getelementptr inbounds nuw %struct.SDL_DisplayMode, ptr %53, i32 0, i32 5
  store float %52, ptr %54, align 4
  br label %55

55:                                               ; preds = %38, %23
  ret void
}

; Function Attrs: nounwind uwtable
define hidden void @SDL_SetDesktopDisplayMode(ptr noundef %0, ptr noundef %1) #0 {
  %3 = alloca ptr, align 8
  %4 = alloca ptr, align 8
  %5 = alloca %struct.SDL_DisplayMode, align 8
  %6 = alloca i32, align 4
  store ptr %0, ptr %3, align 8
  store ptr %1, ptr %4, align 8
  call void @llvm.lifetime.start.p0(i64 40, ptr %5) #10
  %7 = load ptr, ptr %3, align 8
  %8 = getelementptr inbounds nuw %struct.SDL_VideoDisplay, ptr %7, i32 0, i32 11
  %9 = load i8, ptr %8, align 4, !range !5, !noundef !6
  %10 = trunc i8 %9 to i1
  br i1 %10, label %11, label %12

11:                                               ; preds = %2
  store i32 1, ptr %6, align 4
  br label %64

12:                                               ; preds = %2
  %13 = load ptr, ptr %3, align 8
  %14 = getelementptr inbounds nuw %struct.SDL_VideoDisplay, ptr %13, i32 0, i32 5
  call void @llvm.memcpy.p0.p0.i64(ptr align 8 %5, ptr align 8 %14, i64 40, i1 false)
  %15 = load ptr, ptr %3, align 8
  %16 = getelementptr inbounds nuw %struct.SDL_VideoDisplay, ptr %15, i32 0, i32 5
  %17 = getelementptr inbounds nuw %struct.SDL_DisplayMode, ptr %16, i32 0, i32 8
  %18 = load ptr, ptr %17, align 8
  %19 = icmp ne ptr %18, null
  br i1 %19, label %20, label %25

20:                                               ; preds = %12
  %21 = load ptr, ptr %3, align 8
  %22 = getelementptr inbounds nuw %struct.SDL_VideoDisplay, ptr %21, i32 0, i32 5
  %23 = getelementptr inbounds nuw %struct.SDL_DisplayMode, ptr %22, i32 0, i32 8
  %24 = load ptr, ptr %23, align 8
  call void @SDL_free_REAL(ptr noundef %24)
  br label %25

25:                                               ; preds = %20, %12
  %26 = load ptr, ptr %3, align 8
  %27 = getelementptr inbounds nuw %struct.SDL_VideoDisplay, ptr %26, i32 0, i32 5
  %28 = load ptr, ptr %4, align 8
  call void @llvm.memcpy.p0.p0.i64(ptr align 8 %27, ptr align 8 %28, i64 40, i1 false)
  %29 = load ptr, ptr %3, align 8
  %30 = getelementptr inbounds nuw %struct.SDL_VideoDisplay, ptr %29, i32 0, i32 0
  %31 = load i32, ptr %30, align 8
  %32 = load ptr, ptr %3, align 8
  %33 = getelementptr inbounds nuw %struct.SDL_VideoDisplay, ptr %32, i32 0, i32 5
  %34 = getelementptr inbounds nuw %struct.SDL_DisplayMode, ptr %33, i32 0, i32 0
  store i32 %31, ptr %34, align 8
  %35 = load ptr, ptr %3, align 8
  %36 = getelementptr inbounds nuw %struct.SDL_VideoDisplay, ptr %35, i32 0, i32 5
  call void @SDL_FinalizeDisplayMode(ptr noundef %36)
  %37 = load ptr, ptr %3, align 8
  %38 = getelementptr inbounds nuw %struct.SDL_VideoDisplay, ptr %37, i32 0, i32 5
  %39 = call zeroext i1 @DisplayModeChanged(ptr noundef %5, ptr noundef %38)
  br i1 %39, label %40, label %63

40:                                               ; preds = %25
  %41 = load ptr, ptr %3, align 8
  %42 = load ptr, ptr %4, align 8
  %43 = getelementptr inbounds nuw %struct.SDL_DisplayMode, ptr %42, i32 0, i32 2
  %44 = load i32, ptr %43, align 8
  %45 = load ptr, ptr %4, align 8
  %46 = getelementptr inbounds nuw %struct.SDL_DisplayMode, ptr %45, i32 0, i32 3
  %47 = load i32, ptr %46, align 4
  call void @SDL_SendDisplayEvent(ptr noundef %41, i32 noundef 341, i32 noundef %44, i32 noundef %47)
  %48 = load ptr, ptr %3, align 8
  %49 = getelementptr inbounds nuw %struct.SDL_VideoDisplay, ptr %48, i32 0, i32 6
  %50 = load ptr, ptr %49, align 8
  %51 = load ptr, ptr %3, align 8
  %52 = getelementptr inbounds nuw %struct.SDL_VideoDisplay, ptr %51, i32 0, i32 5
  %53 = icmp eq ptr %50, %52
  br i1 %53, label %54, label %62

54:                                               ; preds = %40
  %55 = load ptr, ptr %3, align 8
  %56 = load ptr, ptr %4, align 8
  %57 = getelementptr inbounds nuw %struct.SDL_DisplayMode, ptr %56, i32 0, i32 2
  %58 = load i32, ptr %57, align 8
  %59 = load ptr, ptr %4, align 8
  %60 = getelementptr inbounds nuw %struct.SDL_DisplayMode, ptr %59, i32 0, i32 3
  %61 = load i32, ptr %60, align 4
  call void @SDL_SendDisplayEvent(ptr noundef %55, i32 noundef 342, i32 noundef %58, i32 noundef %61)
  br label %62

62:                                               ; preds = %54, %40
  br label %63

63:                                               ; preds = %62, %25
  store i32 0, ptr %6, align 4
  br label %64

64:                                               ; preds = %63, %11
  call void @llvm.lifetime.end.p0(i64 40, ptr %5) #10
  %65 = load i32, ptr %6, align 4
  switch i32 %65, label %67 [
    i32 0, label %66
    i32 1, label %66
  ]

66:                                               ; preds = %64, %64
  ret void

67:                                               ; preds = %64
  unreachable
}