; Function Attrs: nounwind uwtable
define hidden void @SDL_SetDesktopDisplayMode(ptr noundef %0, ptr noundef readonly captures(none) %1) local_unnamed_addr #0 {
  %3 = getelementptr inbounds nuw i8, ptr %0, i64 100
  %4 = load i8, ptr %3, align 4, !range !6, !noundef !7
  %5 = trunc nuw i8 %4 to i1
  br i1 %5, label %DisplayModeChanged.exit.thread18, label %6

6:                                                ; preds = %2
  %7 = getelementptr inbounds nuw i8, ptr %0, i64 32
  %.sroa.0.0.copyload = load i32, ptr %7, align 8
  %.sroa.4.0..sroa_idx = getelementptr inbounds nuw i8, ptr %0, i64 36
  %.sroa.4.0.copyload = load i32, ptr %.sroa.4.0..sroa_idx, align 4
  %.sroa.5.0..sroa_idx = getelementptr inbounds nuw i8, ptr %0, i64 40
  %.sroa.5.0.copyload = load i32, ptr %.sroa.5.0..sroa_idx, align 8
  %.sroa.6.0..sroa_idx = getelementptr inbounds nuw i8, ptr %0, i64 44
  %.sroa.6.0.copyload = load i32, ptr %.sroa.6.0..sroa_idx, align 4
  %.sroa.7.0..sroa_idx = getelementptr inbounds nuw i8, ptr %0, i64 48
  %.sroa.7.0.copyload = load float, ptr %.sroa.7.0..sroa_idx, align 8
  %.sroa.8.0..sroa_idx = getelementptr inbounds nuw i8, ptr %0, i64 52
  %.sroa.8.0.copyload = load float, ptr %.sroa.8.0..sroa_idx, align 4
  %.sroa.9.0..sroa_idx = getelementptr inbounds nuw i8, ptr %0, i64 56
  %8 = getelementptr inbounds nuw i8, ptr %0, i64 64
  %9 = load ptr, ptr %8, align 8
  %.not = icmp eq ptr %9, null
  br i1 %.not, label %11, label %10

10:                                               ; preds = %6
  tail call void @SDL_free_REAL(ptr noundef nonnull %9) #19
  br label %11

11:                                               ; preds = %10, %6
  tail call void @llvm.memcpy.p0.p0.i64(ptr noundef nonnull align 8 dereferenceable(40) %7, ptr noundef nonnull align 8 dereferenceable(40) %1, i64 40, i1 false)
  %12 = load i32, ptr %0, align 8
  store i32 %12, ptr %7, align 8
  %13 = load float, ptr %.sroa.7.0..sroa_idx, align 8
  %14 = fcmp ugt float %13, 0.000000e+00
  br i1 %14, label %16, label %15

15:                                               ; preds = %11
  store float 1.000000e+00, ptr %.sroa.7.0..sroa_idx, align 8
  br label %16

16:                                               ; preds = %15, %11
  %17 = load i32, ptr %.sroa.9.0..sroa_idx, align 8
  %18 = icmp sgt i32 %17, 0
  br i1 %18, label %19, label %31

19:                                               ; preds = %16
  %20 = getelementptr inbounds nuw i8, ptr %0, i64 60
  %21 = load i32, ptr %20, align 4
  %22 = icmp slt i32 %21, 1
  br i1 %22, label %23, label %24

23:                                               ; preds = %19
  store i32 1, ptr %20, align 4
  br label %24

24:                                               ; preds = %23, %19
  %25 = phi i32 [ 1, %23 ], [ %21, %19 ]
  %26 = zext nneg i32 %17 to i64
  %27 = mul nuw nsw i64 %26, 100
  %28 = zext nneg i32 %25 to i64
  %29 = udiv i64 %27, %28
  %30 = uitofp nneg i64 %29 to float
  br label %SDL_FinalizeDisplayMode.exit

31:                                               ; preds = %16
  %32 = load float, ptr %.sroa.8.0..sroa_idx, align 4
  %33 = getelementptr inbounds nuw i8, ptr %0, i64 60
  tail call void @SDL_CalculateFraction(float noundef %32, ptr noundef nonnull %.sroa.9.0..sroa_idx, ptr noundef nonnull %33) #19
  %34 = load float, ptr %.sroa.8.0..sroa_idx, align 4
  %35 = fmul float %34, 1.000000e+02
  %36 = fptosi float %35 to i32
  %37 = sitofp i32 %36 to float
  br label %SDL_FinalizeDisplayMode.exit

SDL_FinalizeDisplayMode.exit:                     ; preds = %24, %31
  %storemerge.in = phi float [ %37, %31 ], [ %30, %24 ]
  %storemerge = fdiv float %storemerge.in, 1.000000e+02
  store float %storemerge, ptr %.sroa.8.0..sroa_idx, align 4
  %.not.i = icmp eq i32 %.sroa.0.0.copyload, 0
  br i1 %.not.i, label %40, label %38

38:                                               ; preds = %SDL_FinalizeDisplayMode.exit
  %39 = load i32, ptr %7, align 8
  %.not23.i = icmp eq i32 %.sroa.0.0.copyload, %39
  br i1 %.not23.i, label %40, label %DisplayModeChanged.exit.thread

40:                                               ; preds = %38, %SDL_FinalizeDisplayMode.exit
  %.not24.i = icmp eq i32 %.sroa.4.0.copyload, 0
  br i1 %.not24.i, label %43, label %41

41:                                               ; preds = %40
  %42 = load i32, ptr %.sroa.4.0..sroa_idx, align 4
  %.not25.i = icmp eq i32 %.sroa.4.0.copyload, %42
  br i1 %.not25.i, label %43, label %DisplayModeChanged.exit.thread

43:                                               ; preds = %41, %40
  %.not26.i = icmp eq i32 %.sroa.5.0.copyload, 0
  %.not27.i = icmp eq i32 %.sroa.6.0.copyload, 0
  %or.cond = select i1 %.not26.i, i1 true, i1 %.not27.i
  br i1 %or.cond, label %48, label %44

44:                                               ; preds = %43
  %45 = load i32, ptr %.sroa.5.0..sroa_idx, align 8
  %.not28.i = icmp eq i32 %.sroa.5.0.copyload, %45
  br i1 %.not28.i, label %46, label %DisplayModeChanged.exit.thread

46:                                               ; preds = %44
  %47 = load i32, ptr %.sroa.6.0..sroa_idx, align 4
  %.not29.i = icmp eq i32 %.sroa.6.0.copyload, %47
  br i1 %.not29.i, label %48, label %DisplayModeChanged.exit.thread

48:                                               ; preds = %46, %43
  %49 = fcmp une float %.sroa.7.0.copyload, 0.000000e+00
  br i1 %49, label %50, label %53

50:                                               ; preds = %48
  %51 = load float, ptr %.sroa.7.0..sroa_idx, align 8
  %52 = fcmp une float %.sroa.7.0.copyload, %51
  br i1 %52, label %DisplayModeChanged.exit.thread, label %53

53:                                               ; preds = %50, %48
  %54 = fcmp une float %.sroa.8.0.copyload, 0.000000e+00
  %55 = fcmp une float %.sroa.8.0.copyload, %storemerge
  %or.cond19 = select i1 %54, i1 %55, i1 false
  br i1 %or.cond19, label %DisplayModeChanged.exit.thread, label %DisplayModeChanged.exit.thread18

DisplayModeChanged.exit.thread:                   ; preds = %53, %38, %41, %44, %46, %50
  %56 = getelementptr inbounds nuw i8, ptr %1, i64 8
  %57 = load i32, ptr %56, align 8
  %58 = getelementptr inbounds nuw i8, ptr %1, i64 12
  %59 = load i32, ptr %58, align 4
  tail call void @SDL_SendDisplayEvent(ptr noundef nonnull %0, i32 noundef 341, i32 noundef %57, i32 noundef %59) #19
  %60 = getelementptr inbounds nuw i8, ptr %0, i64 72
  %61 = load ptr, ptr %60, align 8
  %62 = icmp eq ptr %61, %7
  br i1 %62, label %63, label %DisplayModeChanged.exit.thread18

63:                                               ; preds = %DisplayModeChanged.exit.thread
  %64 = load i32, ptr %56, align 8
  %65 = load i32, ptr %58, align 4
  tail call void @SDL_SendDisplayEvent(ptr noundef nonnull %0, i32 noundef 342, i32 noundef %64, i32 noundef %65) #19
  br label %DisplayModeChanged.exit.thread18

DisplayModeChanged.exit.thread18:                 ; preds = %53, %63, %DisplayModeChanged.exit.thread, %2
  ret void
}